(i__main__
doctor
p0
(dp1
S'cons'
p2
I8
sS'curr'
p3
I0
sS'room_no'
p4
I101
sS'phone1'
p5
L9188271621L
sS'name1'
p6
VK.K. Kapur
p7
sS'secretary'
p8
VRaj Batra
p9
sS'spec1'
p10
VCardiology
p11
sb.(i__main__
doctor
p0
(dp1
S'cons'
p2
I8
sS'curr'
p3
I0
sS'room_no'
p4
I102
sS'phone1'
p5
L9118211234L
sS'name1'
p6
VMahesh Garg
p7
sS'secretary'
p8
VPradeep Singh
p9
sS'spec1'
p10
VCardiology
p11
sb.(i__main__
doctor
p0
(dp1
S'cons'
p2
I5
sS'curr'
p3
I0
sS'room_no'
p4
I103
sS'phone1'
p5
L91182232214L
sS'name1'
p6
VPradeep Jain
p7
sS'secretary'
p8
VFarhan Ali
p9
sS'spec1'
p10
VCardiology
p11
sb.(i__main__
doctor
p0
(dp1
S'cons'
p2
I5
sS'curr'
p3
I0
sS'room_no'
p4
I104
sS'phone1'
p5
L8819233721L
sS'name1'
p6
VS.K. Gupta
p7
sS'secretary'
p8
VAyush Parashar
p9
sS'spec1'
p10
VCardiology
p11
sb.(i__main__
doctor
p0
(dp1
S'cons'
p2
I4
sS'curr'
p3
I0
sS'room_no'
p4
I201
sS'phone1'
p5
L7811922813L
sS'name1'
p6
VAnju Mangla
p7
sS'secretary'
p8
VGarima Talwar
p9
sS'spec1'
p10
VDermatology
p11
sb.(i__main__
doctor
p0
(dp1
S'cons'
p2
I4
sS'curr'
p3
I0
sS'room_no'
p4
I202
sS'phone1'
p5
L9182211235L
sS'name1'
p6
VD.M. Mahajan
p7
sS'secretary'
p8
VMadhav Sangal
p9
sS'spec1'
p10
VDermatology
p11
sb.(i__main__
doctor
p0
(dp1
S'cons'
p2
I4
sS'curr'
p3
I0
sS'room_no'
p4
I203
sS'phone1'
p5
L9182211284L
sS'name1'
p6
VRamji Gupta
p7
sS'secretary'
p8
VChetan Kumar
p9
sS'spec1'
p10
VDermatology
p11
sb.(i__main__
doctor
p0
(dp1
S'cons'
p2
I5
sS'curr'
p3
I0
sS'room_no'
p4
I204
sS'phone1'
p5
L9182271243L
sS'name1'
p6
VRavi Joshi
p7
sS'secretary'
p8
VRajiv Sinha
p9
sS'spec1'
p10
VDermatology
p11
sb.(i__main__
doctor
p0
(dp1
S'cons'
p2
I7
sS'curr'
p3
I0
sS'room_no'
p4
I301
sS'phone1'
p5
L9188213443L
sS'name1'
p6
VC.M. Batra
p7
sS'secretary'
p8
VTina Wadhwa
p9
sS'spec1'
p10
VEndocrinology
p11
sb.(i__main__
doctor
p0
(dp1
S'cons'
p2
I7
sS'curr'
p3
I0
sS'room_no'
p4
I302
sS'phone1'
p5
L9188276162L
sS'name1'
p6
VR.P. Singh
p7
sS'secretary'
p8
VParth Dawar
p9
sS'spec1'
p10
VEndocrinology
p11
sb.(i__main__
doctor
p0
(dp1
S'cons'
p2
I5
sS'curr'
p3
I0
sS'room_no'
p4
I401
sS'phone1'
p5
L9182761522L
sS'name1'
p6
VAjay Kumar
p7
sS'secretary'
p8
VGavish Malhotra
p9
sS'spec1'
p10
VGastroentrology
p11
sb.(i__main__
doctor
p0
(dp1
S'cons'
p2
I7
sS'curr'
p3
I0
sS'room_no'
p4
I402
sS'phone1'
p5
L9882345894L
sS'name1'
p6
VAmitabh Dutta
p7
sS'secretary'
p8
VRahul Praveen
p9
sS'spec1'
p10
VGastroentrology
p11
sb.(i__main__
doctor
p0
(dp1
S'cons'
p2
I8
sS'curr'
p3
I0
sS'room_no'
p4
I403
sS'phone1'
p5
L28458545848L
sS'name1'
p6
VDeepika Govil
p7
sS'secretary'
p8
VApurva Mishra
p9
sS'spec1'
p10
VGastroentrology
p11
sb.(i__main__
doctor
p0
(dp1
S'cons'
p2
I7
sS'curr'
p3
I0
sS'room_no'
p4
I404
sS'phone1'
p5
L8284375682L
sS'name1'
p6
VSanjay Sikka
p7
sS'secretary'
p8
VSom Mangal
p9
sS'spec1'
p10
VGastroentrology
p11
sb.(i__main__
doctor
p0
(dp1
S'cons'
p2
I6
sS'curr'
p3
I0
sS'room_no'
p4
I501
sS'phone1'
p5
L9188271623L
sS'name1'
p6
VLalita Badhwar
p7
sS'secretary'
p8
VSoumya Sharma
p9
sS'spec1'
p10
VGynecology
p11
sb.(i__main__
doctor
p0
(dp1
S'cons'
p2
I5
sS'curr'
p3
I0
sS'room_no'
p4
I502
sS'phone1'
p5
L9999811232L
sS'name1'
p6
VMadhu Roy
p7
sS'secretary'
p8
VJackie Roy
p9
sS'spec1'
p10
VGynecology
p11
sb.(i__main__
doctor
p0
(dp1
S'cons'
p2
I5
sS'curr'
p3
I0
sS'room_no'
p4
I503
sS'phone1'
p5
L9918772677L
sS'name1'
p6
VNeelam Suri
p7
sS'secretary'
p8
VFawad Ali
p9
sS'spec1'
p10
VGynecology
p11
sb.(i__main__
doctor
p0
(dp1
S'cons'
p2
I4
sS'curr'
p3
I0
sS'room_no'
p4
I504
sS'phone1'
p5
L9118212333L
sS'name1'
p6
VPuneet Bedi
p7
sS'secretary'
p8
VHarsh Khanna
p9
sS'spec1'
p10
VGynecology
p11
sb.(i__main__
doctor
p0
(dp1
S'cons'
p2
I3
sS'curr'
p3
I0
sS'room_no'
p4
I601
sS'phone1'
p5
L9188177899L
sS'name1'
p6
VPranav Kumar
p7
sS'secretary'
p8
VPooja Kumar
p9
sS'spec1'
p10
VNeurosurgery
p11
sb.(i__main__
doctor
p0
(dp1
S'cons'
p2
I3
sS'curr'
p3
I0
sS'room_no'
p4
I602
sS'phone1'
p5
L9988976152L
sS'name1'
p6
VRavi Bhatia
p7
sS'secretary'
p8
VJatin Jaiswal
p9
sS'spec1'
p10
VNeurosurgery
p11
sb.(i__main__
doctor
p0
(dp1
S'cons'
p2
I4
sS'curr'
p3
I0
sS'room_no'
p4
I603
sS'phone1'
p5
L9188172615L
sS'name1'
p6
VSudheer Tyagi
p7
sS'secretary'
p8
VParam Lamba
p9
sS'spec1'
p10
VNeurosurgery
p11
sb.(i__main__
doctor
p0
(dp1
S'cons'
p2
I3
sS'curr'
p3
I0
sS'room_no'
p4
I604
sS'phone1'
p5
L7188271655L
sS'name1'
p6
VRavi Bhatia
p7
sS'secretary'
p8
VKavya Singh
p9
sS'spec1'
p10
VNeurosurgery
p11
sb.(i__main__
doctor
p0
(dp1
S'cons'
p2
I5
sS'curr'
p3
I0
sS'room_no'
p4
I701
sS'phone1'
p5
L8819288716L
sS'name1'
p6
VAshu Agarwal
p7
sS'secretary'
p8
VShikhar Saraswat
p9
sS'spec1'
p10
VOpthalmology
p11
sb.(i__main__
doctor
p0
(dp1
S'cons'
p2
I7
sS'curr'
p3
I0
sS'room_no'
p4
I602
sS'phone1'
p5
L9698269698L
sS'name1'
p6
VAneil Malhotra
p7
sS'secretary'
p8
VLara Kapur
p9
sS'spec1'
p10
VOthalmology
p11
sb.(i__main__
doctor
p0
(dp1
S'cons'
p2
I6
sS'curr'
p3
I0
sS'room_no'
p4
I603
sS'phone1'
p5
L9009801827L
sS'name1'
p6
VDinesh Talwar
p7
sS'secretary'
p8
VLakhan Pal
p9
sS'spec1'
p10
VOpthalmology
p11
sb.(i__main__
doctor
p0
(dp1
S'cons'
p2
I5
sS'curr'
p3
I0
sS'room_no'
p4
I704
sS'phone1'
p5
L9288201922L
sS'name1'
p6
VHarsh Kumar
p7
sS'secretary'
p8
VManit Govil
p9
sS'spec1'
p10
VOpthalmology
p11
sb.(i__main__
doctor
p0
(dp1
S'cons'
p2
I7
sS'curr'
p3
I0
sS'room_no'
p4
I801
sS'phone1'
p5
L9811016102L
sS'name1'
p6
VRamani Narasimhan
p7
sS'secretary'
p8
VJatinder Kaur
p9
sS'spec1'
p10
VOrthopaedics
p11
sb.(i__main__
doctor
p0
(dp1
S'cons'
p2
I7
sS'curr'
p3
I0
sS'room_no'
p4
I802
sS'phone1'
p5
L9918212342L
sS'name1'
p6
VYatinder Kharbanda 
p7
sS'secretary'
p8
VKamini Johar
p9
sS'spec1'
p10
VOrthopaedics
p11
sb.(i__main__
doctor
p0
(dp1
S'cons'
p2
I8
sS'curr'
p3
I0
sS'room_no'
p4
I101
sS'phone1'
p5
L9188271621L
sS'name1'
p6
VK.K. Kapur
p7
sS'secretary'
p8
VRaj Batra
p9
sS'spec1'
p10
VCardiology
p11
sb.