(i__main__
patient
p0
(dp1
S'name'
p2
VChetan Anand
p3
sS'doctor'
p4
VDr.Pradeep Jain
p5
sS'pat_code'
p6
I12
sS'age'
p7
I19
sS'phone'
p8
L9899612343L
sS'spec'
p9
VCardiology
p10
sS'ailm'
p11
VCardiac Arrest
p12
sb.(i__main__
patient
p0
(dp1
S'name'
p2
VAnju Kumar
p3
sS'doctor'
p4
VDr.Prita Trehan
p5
sS'pat_code'
p6
I2
sS'age'
p7
I1
sS'phone'
p8
I919
sS'spec'
p9
VPediatrics
p10
sS'ailm'
p11
VHer Kid
p12
sb.(i__main__
patient
p0
(dp1
S'name'
p2
VA
p3
sS'doctor'
p4
VDr.Dinesh Talwar
p5
sS'pat_code'
p6
I3
sS'age'
p7
I8
sS'phone'
p8
I8
sS'spec'
p9
VOpthalmology
p10
sS'ailm'
p11
VMyopia
p12
sb.(i__main__
patient
p0
(dp1
S'name'
p2
VB
p3
sS'doctor'
p4
VDr.Deepa Sharma
p5
sS'pat_code'
p6
I4
sS'age'
p7
I7
sS'phone'
p8
I918271
sS'spec'
p9
VPediatrics
p10
sS'ailm'
p11
VChild Bone deformity
p12
sb.(i__main__
patient
p0
(dp1
S'name'
p2
VL
p3
sS'doctor'
p4
VRajeev Puri
p5
sS'pat_code'
p6
I5
sS'age'
p7
I4
sS'phone'
p8
I6
sS'spec'
p9
VENT
p10
sS'ailm'
p11
Vl
p12
sb.(i__main__
patient
p0
(dp1
S'name'
p2
Vp
p3
sS'doctor'
p4
VMahesh Garg
p5
sS'pat_code'
p6
I8
sS'age'
p7
I2
sS'phone'
p8
I98
sS'spec'
p9
VCardiology
p10
sS'ailm'
p11
VCardiology
p12
sb.